target datalayout = "e-m:e-p270:32:32-p271:32:32-p272:64:64-i64:64-i128:128-f80:128-n8:16:32:64-S128"
target triple = "x86_64-unknown-linux-gnu"

%class.symbol = type { ptr }
%"class.smt::setup" = type <{ ptr, ptr, ptr, %class.symbol, i8, [7 x i8] }>

; Function Attrs: mustprogress uwtable
define hidden void @_ZN3smt5setup9setup_fpaEv(ptr noundef nonnull align 8 dereferenceable(33) %this) #5 align 2 {
entry:
  %this.addr = alloca ptr, align 8
  store ptr %this, ptr %this.addr, align 8
  %this1 = load ptr, ptr %this.addr, align 8
  call void @_ZN3smt5setup8setup_bvEv(ptr noundef nonnull align 8 dereferenceable(33) %this1)
  %m_context = getelementptr inbounds %"class.smt::setup", ptr %this1, i32 0, i32 0
  %0 = load ptr, ptr %m_context, align 8
  %call = call noalias noundef ptr @_ZN6memory8allocateEm(i64 noundef 1584)
  %m_context2 = getelementptr inbounds %"class.smt::setup", ptr %this1, i32 0, i32 0
  %1 = load ptr, ptr %m_context2, align 8
  call void @_ZN3smt10theory_fpaC1ERNS_7contextE(ptr noundef nonnull align 8 dereferenceable(1584) %call, ptr noundef nonnull align 8 dereferenceable(11616) %1)
  call void @_ZN3smt7context15register_pluginEPNS_6theoryE(ptr noundef nonnull align 8 dereferenceable(11616) %0, ptr noundef %call)
  ret void
}